(lp0
(lp1
(iGraphStructs
Node
p2
(dp3
S'm_coords'
p4
(F-7.0
F-7.849999999999994
tp5
sS'coords'
p6
(lp7
I1860
aI1843
asS'id'
p8
I0
sS'prev_id'
p9
I0
sba(iGraphStructs
Node
p10
(dp11
g4
(F-0.6999999999999886
F-2.0
tp12
sg6
(lp13
I1986
aI1960
asg8
I1
sg9
I1
sba(iGraphStructs
Node
p14
(dp15
g4
(F-4.349999999999994
F1.1500000000000057
tp16
sg6
(lp17
I1913
aI2023
asg8
I2
sg9
I2
sba(iGraphStructs
Node
p18
(dp19
g4
(F12.550000000000011
F-16.75
tp20
sg6
(I2251
I1665
tp21
sg8
I3
sg9
I3
sba(iGraphStructs
Node
p22
(dp23
g4
(F-5.599999999999994
F-1.3999999999999915
tp24
sg6
(lp25
I1888
aI1972
asg8
I4
sg9
I4
sba(iGraphStructs
Node
p26
(dp27
g4
(F11.450000000000003
F-18.5
tp28
sg6
(lp29
I2229
aI1630
asg8
I5
sg9
I5
sba(iGraphStructs
Node
p30
(dp31
g4
(F13.050000000000011
F-12.849999999999994
tp32
sg6
(lp33
I2261
aI1743
asg8
I6
sg9
I6
sba(iGraphStructs
Node
p34
(dp35
g4
(F2.5500000000000114
F-6.75
tp36
sg6
(lp37
I2051
aI1865
asg8
I7
sg9
I7
sba(iGraphStructs
Node
p38
(dp39
g4
(F-6.099999999999994
F-6.25
tp40
sg6
(lp41
I1878
aI1875
asg8
I8
sg9
I8
sba(iGraphStructs
Node
p42
(dp43
g4
(F8.550000000000011
F-12.25
tp44
sg6
(lp45
I2171
aI1755
asg8
I9
sg9
I9
sba(iGraphStructs
Node
p46
(dp47
g4
(F13.800000000000011
F-15.0
tp48
sg6
(lp49
I2276
aI1700
asg8
I10
sg9
I10
sba(iGraphStructs
Node
p50
(dp51
g4
(F3.6000000000000085
F-6.8999999999999915
tp52
sg6
(I2072
I1862
tp53
sg8
I11
sg9
I11
sba(iGraphStructs
Node
p54
(dp55
g4
(F-4.049999999999997
F-3.25
tp56
sg6
(lp57
I1919
aI1935
asg8
I12
sg9
I12
sba(iGraphStructs
Node
p58
(dp59
g4
(F-8.299999999999997
F-7.8999999999999915
tp60
sg6
(lp61
I1834
aI1842
asg8
I13
sg9
I13
sba(iGraphStructs
Node
p62
(dp63
g4
(F4.25
F-10.349999999999994
tp64
sg6
(lp65
I2085
aI1793
asg8
I14
sg9
I14
sba(iGraphStructs
Node
p66
(dp67
g4
(F-5.1499999999999915
F-5.75
tp68
sg6
(lp69
I1897
aI1885
asg8
I15
sg9
I15
sba(iGraphStructs
Node
p70
(dp71
g4
(F14.550000000000011
F-10.0
tp72
sg6
(lp73
I2291
aI1800
asg8
I16
sg9
I16
sba(iGraphStructs
Node
p74
(dp75
g4
(F1.1500000000000057
F-8.199999999999989
tp76
sg6
(lp77
I2023
aI1836
asg8
I17
sg9
I17
sba(iGraphStructs
Node
p78
(dp79
g4
(F-0.5
F-8.099999999999994
tp80
sg6
(lp81
I1990
aI1838
asg8
I18
sg9
I18
sba(iGraphStructs
Node
p82
(dp83
g4
(F10.0
F-10.349999999999994
tp84
sg6
(lp85
I2200
aI1793
asg8
I19
sg9
I19
sba(iGraphStructs
Node
p86
(dp87
g4
(F-7.099999999999994
F-4.0
tp88
sg6
(lp89
I1858
aI1920
asg8
I20
sg9
I20
sba(iGraphStructs
Node
p90
(dp91
g4
(F12.0
F-9.599999999999994
tp92
sg6
(lp93
I2240
aI1808
asg8
I21
sg9
I21
sba(iGraphStructs
Node
p94
(dp95
g4
(F-1.6499999999999915
F-7.199999999999989
tp96
sg6
(lp97
I1967
aI1856
asg8
I22
sg9
I22
sba(iGraphStructs
Node
p98
(dp99
g4
(F-4.75
F-0.5999999999999943
tp100
sg6
(lp101
I1905
aI1988
asg8
I23
sg9
I23
sba(iGraphStructs
Node
p102
(dp103
g4
(F-7.1499999999999915
F-5.449999999999989
tp104
sg6
(lp105
I1857
aI1891
asg8
I24
sg9
I24
sba(iGraphStructs
Node
p106
(dp107
g4
(F11.5
F-12.449999999999989
tp108
sg6
(lp109
I2230
aI1751
asg8
I25
sg9
I25
sba(iGraphStructs
Node
p110
(dp111
g4
(F12.900000000000006
F-14.049999999999997
tp112
sg6
(lp113
I2258
aI1719
asg8
I26
sg9
I26
sba(iGraphStructs
Node
p114
(dp115
g4
(F14.75
F-7.549999999999997
tp116
sg6
(lp117
I2295
aI1849
asg8
I27
sg9
I27
sba(iGraphStructs
Node
p118
(dp119
g4
(F-4.449999999999989
F2.700000000000003
tp120
sg6
(lp121
I1911
aI2054
asg8
I28
sg9
I28
sba(iGraphStructs
Node
p122
(dp123
g4
(F10.850000000000009
F-10.899999999999991
tp124
sg6
(lp125
I2217
aI1782
asg8
I29
sg9
I29
sba(iGraphStructs
Node
p126
(dp127
g4
(F15.850000000000009
F-5.199999999999989
tp128
sg6
(lp129
I2317
aI1896
asg8
I30
sg9
I30
sba(iGraphStructs
Node
p130
(dp131
g4
(F5.200000000000003
F-11.349999999999994
tp132
sg6
(lp133
I2104
aI1773
asg8
I31
sg9
I31
sba(iGraphStructs
Node
p134
(dp135
g4
(F0.45000000000000284
F-7.25
tp136
sg6
(lp137
I2009
aI1855
asg8
I32
sg9
I32
sba(iGraphStructs
Node
p138
(dp139
g4
(F-8.699999999999989
F-8.849999999999994
tp140
sg6
(lp141
I1826
aI1823
asg8
I33
sg9
I33
sba(iGraphStructs
Node
p142
(dp143
g4
(F5.5
F-10.349999999999994
tp144
sg6
(lp145
I2110
aI1793
asg8
I34
sg9
I34
sba(iGraphStructs
Node
p146
(dp147
g4
(F-3.3499999999999943
F-6.3999999999999915
tp148
sg6
(lp149
I1933
aI1872
asg8
I35
sg9
I35
sba(iGraphStructs
Node
p150
(dp151
g4
(F7.450000000000003
F-12.049999999999997
tp152
sg6
(lp153
I2149
aI1759
asg8
I36
sg9
I36
sba(iGraphStructs
Node
p154
(dp155
g4
(F12.850000000000009
F-10.449999999999989
tp156
sg6
(lp157
I2257
aI1791
asg8
I37
sg9
I37
sba(iGraphStructs
Node
p158
(dp159
g4
(F11.350000000000009
F-14.25
tp160
sg6
(lp161
I2227
aI1715
asg8
I38
sg9
I38
sba(iGraphStructs
Node
p162
(dp163
g4
(F4.150000000000006
F-9.349999999999994
tp164
sg6
(lp165
I2083
aI1813
asg8
I39
sg9
I39
sba(iGraphStructs
Node
p166
(dp167
g4
(F-2.3499999999999943
F-6.1499999999999915
tp168
sg6
(lp169
I1953
aI1877
asg8
I40
sg9
I40
sba(iGraphStructs
Node
p170
(dp171
g4
(F17.0
F-5.5
tp172
sg6
(lp173
I2340
aI1890
asg8
I41
sg9
I41
sba(iGraphStructs
Node
p174
(dp175
g4
(F-8.149999999999991
F-6.1499999999999915
tp176
sg6
(lp177
I1837
aI1877
asg8
I42
sg9
I42
sba(iGraphStructs
Node
p178
(dp179
g4
(F-1.3999999999999915
F-0.04999999999999716
tp180
sg6
(lp181
I1972
aI1999
asg8
I43
sg9
I43
sba(iGraphStructs
Node
p182
(dp183
g4
(F8.25
F-9.149999999999991
tp184
sg6
(lp185
I2165
aI1817
asg8
I44
sg9
I44
sba(iGraphStructs
Node
p186
(dp187
g4
(F9.350000000000009
F-9.549999999999997
tp188
sg6
(lp189
I2187
aI1809
asg8
I45
sg9
I45
sba(iGraphStructs
Node
p190
(dp191
g4
(F8.850000000000009
F-11.099999999999994
tp192
sg6
(lp193
I2177
aI1778
asg8
I46
sg9
I46
sba(iGraphStructs
Node
p194
(dp195
g4
(F14.25
F-12.149999999999991
tp196
sg6
(lp197
I2285
aI1757
asg8
I47
sg9
I47
sba(iGraphStructs
Node
p198
(dp199
g4
(F10.5
F-15.199999999999989
tp200
sg6
(lp201
I2210
aI1696
asg8
I48
sg9
I48
sba(iGraphStructs
Node
p202
(dp203
g4
(F12.75
F-15.099999999999994
tp204
sg6
(lp205
I2255
aI1698
asg8
I49
sg9
I49
sba(iGraphStructs
Node
p206
(dp207
g4
(F-5.299999999999997
F-3.5999999999999943
tp208
sg6
(lp209
I1894
aI1928
asg8
I50
sg9
I50
sba(iGraphStructs
Node
p210
(dp211
g4
(F2.0
F-9.199999999999989
tp212
sg6
(lp213
I2040
aI1816
asg8
I51
sg9
I51
sba(iGraphStructs
Node
p214
(dp215
g4
(F-8.549999999999997
F-5.0
tp216
sg6
(lp217
I1829
aI1900
asg8
I52
sg9
I52
sba(iGraphStructs
Node
p218
(dp219
g4
(F10.400000000000006
F-19.099999999999994
tp220
sg6
(lp221
I2208
aI1618
asg8
I53
sg9
I53
sba(iGraphStructs
Node
p222
(dp223
g4
(F3.0
F-10.149999999999991
tp224
sg6
(lp225
I2060
aI1797
asg8
I54
sg9
I54
sba(iGraphStructs
Node
p226
(dp227
g4
(F10.450000000000003
F-12.949999999999989
tp228
sg6
(lp229
I2209
aI1741
asg8
I55
sg9
I55
sba(iGraphStructs
Node
p230
(dp231
g4
(F15.450000000000003
F-8.799999999999997
tp232
sg6
(lp233
I2309
aI1824
asg8
I56
sg9
I56
sba(iGraphStructs
Node
p234
(dp235
g4
(F0.20000000000000284
F-0.8999999999999915
tp236
sg6
(lp237
I2004
aI1982
asg8
I57
sg9
I57
sba(iGraphStructs
Node
p238
(dp239
g4
(F-1.3999999999999915
F-4.6499999999999915
tp240
sg6
(lp241
I1972
aI1907
asg8
I58
sg9
I58
sba(iGraphStructs
Node
p242
(dp243
g4
(F0.05000000000001137
F-5.1499999999999915
tp244
sg6
(lp245
I2001
aI1897
asg8
I59
sg9
I59
sba(iGraphStructs
Node
p246
(dp247
g4
(F1.6000000000000085
F-5.849999999999994
tp248
sg6
(lp249
I2032
aI1883
asg8
I60
sg9
I60
sba(iGraphStructs
Node
p250
(dp251
g4
(F5.550000000000011
F-7.699999999999989
tp252
sg6
(lp253
I2111
aI1846
asg8
I61
sg9
I61
sba(iGraphStructs
Node
p254
(dp255
g4
(F11.700000000000003
F-15.849999999999994
tp256
sg6
(lp257
I2234
aI1683
asg8
I62
sg9
I62
sba(iGraphStructs
Node
p258
(dp259
g4
(F11.200000000000003
F-17.39999999999999
tp260
sg6
(lp261
I2224
aI1652
asg8
I63
sg9
I63
sba(iGraphStructs
Node
p262
(dp263
g4
(F-2.799999999999997
F-2.6999999999999886
tp264
sg6
(lp265
I1944
aI1946
asg8
I64
sg9
I64
sba(iGraphStructs
Node
p266
(dp267
g4
(F-2.049999999999997
F-1.2999999999999972
tp268
sg6
(lp269
I1959
aI1974
asg8
I65
sg9
I65
sba(iGraphStructs
Node
p270
(dp271
g4
(F-9.799999999999997
F-10.399999999999991
tp272
sg6
(I1804
I1792
tp273
sg8
I66
sg9
I66
sbaa(lp274
(iGraphStructs
Edge
p275
(dp276
S'node1'
p277
S'4'
p278
sS'length'
p279
F56.79788728465171
sS'node2'
p280
S'2'
p281
sS'm_length'
p282
F2.8398943642325856
sg8
I0
sba(iGraphStructs
Edge
p283
(dp284
g277
S'5'
p285
sg279
F41.340053217188775
sg280
S'3'
p286
sg282
F2.0670026608594387
sg8
I1
sba(iGraphStructs
Edge
p287
(dp288
g277
I8
sg279
F36.71511950137164
sg280
S'0'
p289
sg282
F1.8357559750685821
sg8
I2
sba(iGraphStructs
Edge
p290
(dp291
g277
I11
sg279
F22.47220505424423
sg280
S'7'
p292
sg282
F1.1236102527122116
sg8
I3
sba(iGraphStructs
Edge
p293
(dp294
g277
I12
sg279
F48.27007354458868
sg280
g278
sg282
F2.4135036772294343
sg8
I4
sba(iGraphStructs
Edge
p295
(dp296
g277
I13
sg279
F26.019223662515376
sg280
g289
sg282
F1.3009611831257688
sg8
I5
sba(iGraphStructs
Edge
p297
(dp298
g277
I15
sg279
F21.470910553583888
sg280
I8
sg282
F1.0735455276791945
sg8
I6
sba(iGraphStructs
Edge
p299
(dp300
g277
I15
sg279
F54.62600113499065
sg280
I12
sg282
F2.7313000567495327
sg8
I7
sba(iGraphStructs
Edge
p301
(dp302
g277
I17
sg279
F40.311288741492746
sg280
g292
sg282
F2.0155644370746373
sg8
I8
sba(iGraphStructs
Edge
p303
(dp304
g277
I18
sg279
F33.06055050963308
sg280
I17
sg282
F1.6530275254816542
sg8
I9
sba(iGraphStructs
Edge
p305
(dp306
g277
I19
sg279
F47.80167361086848
sg280
I9
sg282
F2.390083680543424
sg8
I10
sba(iGraphStructs
Edge
p307
(dp308
g277
I20
sg279
F52.40229002629561
sg280
I15
sg282
F2.620114501314781
sg8
I11
sba(iGraphStructs
Edge
p309
(dp310
g277
I20
sg279
F60.03332407921454
sg280
g278
sg282
F3.001666203960727
sg8
I12
sba(iGraphStructs
Edge
p311
(dp312
g277
I21
sg279
F42.720018726587654
sg280
I19
sg282
F2.1360009363293826
sg8
I13
sba(iGraphStructs
Edge
p313
(dp314
g277
I22
sg279
F29.206163733020468
sg280
I18
sg282
F1.4603081866510235
sg8
I14
sba(iGraphStructs
Edge
p315
(dp316
g277
I23
sg279
F23.345235059857504
sg280
g278
sg282
F1.1672617529928753
sg8
I15
sba(iGraphStructs
Edge
p317
(dp318
g277
I23
sg279
F35.90264614203248
sg280
g281
sg282
F1.795132307101624
sg8
I16
sba(iGraphStructs
Edge
p319
(dp320
g277
I24
sg279
F26.40075756488817
sg280
I8
sg282
F1.3200378782444087
sg8
I17
sba(iGraphStructs
Edge
p321
(dp322
g277
I24
sg279
F29.017236257093817
sg280
I20
sg282
F1.4508618128546908
sg8
I18
sba(iGraphStructs
Edge
p323
(dp324
g277
I24
sg279
F40.44749683231337
sg280
I15
sg282
F2.0223748416156684
sg8
I19
sba(iGraphStructs
Edge
p325
(dp326
g277
I25
sg279
F32.01562118716424
sg280
S'6'
p327
sg282
F1.6007810593582121
sg8
I20
sba(iGraphStructs
Edge
p328
(dp329
g277
I26
sg279
F42.5205832509386
sg280
I25
sg282
F2.12602916254693
sg8
I21
sba(iGraphStructs
Edge
p330
(dp331
g277
I26
sg279
F26.1725046566048
sg280
I10
sg282
F1.3086252328302401
sg8
I22
sba(iGraphStructs
Edge
p332
(dp333
g277
I26
sg279
F24.186773244895647
sg280
g327
sg282
F1.2093386622447824
sg8
I23
sba(iGraphStructs
Edge
p334
(dp335
g277
I27
sg279
F49.16299421312742
sg280
I16
sg282
F2.4581497106563712
sg8
I24
sba(iGraphStructs
Edge
p336
(dp337
g277
I28
sg279
F31.064449134018133
sg280
g281
sg282
F1.5532224567009068
sg8
I25
sba(iGraphStructs
Edge
p338
(dp339
g277
I29
sg279
F20.248456731316587
sg280
I19
sg282
F1.0124228365658294
sg8
I26
sba(iGraphStructs
Edge
p340
(dp341
g277
I29
sg279
F33.61547262794322
sg280
I25
sg282
F1.680773631397161
sg8
I27
sba(iGraphStructs
Edge
p342
(dp343
g277
I29
sg279
F34.713109915419565
sg280
I21
sg282
F1.7356554957709784
sg8
I28
sba(iGraphStructs
Edge
p344
(dp345
g277
I29
sg279
F53.33854141237835
sg280
I9
sg282
F2.6669270706189177
sg8
I29
sba(iGraphStructs
Edge
p346
(dp347
g277
I29
sg279
F58.7962583843564
sg280
g327
sg282
F2.93981291921782
sg8
I30
sba(iGraphStructs
Edge
p348
(dp349
g277
I30
sg279
F51.894122981316485
sg280
I27
sg282
F2.5947061490658245
sg8
I31
sba(iGraphStructs
Edge
p350
(dp351
g277
I31
sg279
F27.586228448267445
sg280
I14
sg282
F1.3793114224133722
sg8
I32
sba(iGraphStructs
Edge
p352
(dp353
g277
I32
sg279
F23.600847442411894
sg280
I17
sg282
F1.1800423721205948
sg8
I33
sba(iGraphStructs
Edge
p354
(dp355
g277
I32
sg279
F25.495097567963924
sg280
I18
sg282
F1.2747548783981963
sg8
I34
sba(iGraphStructs
Edge
p356
(dp357
g277
I32
sg279
F42.01190307520001
sg280
I22
sg282
F2.1005951537600005
sg8
I35
sba(iGraphStructs
Edge
p358
(dp359
g277
I33
sg279
F20.615528128088304
sg280
I13
sg282
F1.0307764064044151
sg8
I36
sba(iGraphStructs
Edge
p360
(dp361
g277
I33
sg279
F39.44616584663204
sg280
g289
sg282
F1.9723082923316022
sg8
I37
sba(iGraphStructs
Edge
p362
(dp363
g277
I34
sg279
F20.8806130178211
sg280
I31
sg282
F1.044030650891055
sg8
I38
sba(iGraphStructs
Edge
p364
(dp365
g277
I34
sg279
F25.0
sg280
I14
sg282
F1.25
sg8
I39
sba(iGraphStructs
Edge
p366
(dp367
g277
I35
sg279
F37.57658845611187
sg280
I22
sg282
F1.8788294228055937
sg8
I40
sba(iGraphStructs
Edge
p368
(dp369
g277
I35
sg279
F38.27531841800928
sg280
I15
sg282
F1.913765920900464
sg8
I41
sba(iGraphStructs
Edge
p370
(dp371
g277
I35
sg279
F55.08175741568164
sg280
I8
sg282
F2.7540878707840823
sg8
I42
sba(iGraphStructs
Edge
p372
(dp373
g277
I35
sg279
F64.53681120105021
sg280
I12
sg282
F3.2268405600525107
sg8
I43
sba(iGraphStructs
Edge
p374
(dp375
g277
I36
sg279
F22.360679774997898
sg280
I9
sg282
F1.118033988749895
sg8
I44
sba(iGraphStructs
Edge
p376
(dp377
g277
I36
sg279
F51.73973328110612
sg280
I34
sg282
F2.5869866640553063
sg8
I45
sba(iGraphStructs
Edge
p378
(dp379
g277
I37
sg279
F35.17101079013795
sg280
I16
sg282
F1.7585505395068974
sg8
I46
sba(iGraphStructs
Edge
p380
(dp381
g277
I37
sg279
F48.16637831516918
sg280
g327
sg282
F2.4083189157584592
sg8
I47
sba(iGraphStructs
Edge
p382
(dp383
g277
I38
sg279
F36.124783736376884
sg280
I25
sg282
F1.8062391868188443
sg8
I48
sba(iGraphStructs
Edge
p384
(dp385
g277
I39
sg279
F20.09975124224178
sg280
I14
sg282
F1.004987562112089
sg8
I49
sba(iGraphStructs
Edge
p386
(dp387
g277
I39
sg279
F33.60059523282288
sg280
I34
sg282
F1.6800297616411441
sg8
I50
sba(iGraphStructs
Edge
p388
(dp389
g277
I40
sg279
F20.615528128088304
sg280
I35
sg282
F1.0307764064044151
sg8
I51
sba(iGraphStructs
Edge
p390
(dp391
g277
I40
sg279
F25.238858928247925
sg280
I22
sg282
F1.2619429464123963
sg8
I52
sba(iGraphStructs
Edge
p392
(dp393
g277
I40
sg279
F60.166435825965294
sg280
I32
sg282
F3.0083217912982647
sg8
I53
sba(iGraphStructs
Edge
p394
(dp395
g277
I41
sg279
F23.769728648009426
sg280
I30
sg282
F1.1884864324004714
sg8
I54
sba(iGraphStructs
Edge
p396
(dp397
g277
I42
sg279
F24.413111231467404
sg280
I24
sg282
F1.2206555615733703
sg8
I55
sba(iGraphStructs
Edge
p398
(dp399
g277
I42
sg279
F35.12833614050059
sg280
I13
sg282
F1.7564168070250297
sg8
I56
sba(iGraphStructs
Edge
p400
(dp401
g277
I42
sg279
F41.048751503547585
sg280
g289
sg282
F2.0524375751773793
sg8
I57
sba(iGraphStructs
Edge
p402
(dp403
g277
I42
sg279
F41.048751503547585
sg280
I8
sg282
F2.0524375751773793
sg8
I58
sba(iGraphStructs
Edge
p404
(dp405
g277
I43
sg279
F41.43669871020132
sg280
S'1'
p406
sg282
F2.0718349355100663
sg8
I59
sba(iGraphStructs
Edge
p407
(dp408
g277
I45
sg279
F20.615528128088304
sg280
I19
sg282
F1.0307764064044151
sg8
I60
sba(iGraphStructs
Edge
p409
(dp410
g277
I45
sg279
F23.40939982143925
sg280
I44
sg282
F1.1704699910719627
sg8
I61
sba(iGraphStructs
Edge
p411
(dp412
g277
I46
sg279
F32.57299494980466
sg280
I45
sg282
F1.628649747490233
sg8
I62
sba(iGraphStructs
Edge
p413
(dp414
g277
I46
sg279
F23.769728648009426
sg280
I9
sg282
F1.1884864324004714
sg8
I63
sba(iGraphStructs
Edge
p415
(dp416
g277
I46
sg279
F33.83784863137726
sg280
I36
sg282
F1.6918924315688633
sg8
I64
sba(iGraphStructs
Edge
p417
(dp418
g277
I46
sg279
F27.459060435491963
sg280
I19
sg282
F1.3729530217745982
sg8
I65
sba(iGraphStructs
Edge
p419
(dp420
g277
I47
sg279
F27.784887978899608
sg280
g327
sg282
F1.3892443989449805
sg8
I66
sba(iGraphStructs
Edge
p421
(dp422
g277
I47
sg279
F43.41658669218482
sg280
I16
sg282
F2.170829334609241
sg8
I67
sba(iGraphStructs
Edge
p423
(dp424
g277
I47
sg279
F44.04543109109048
sg280
I37
sg282
F2.202271554554524
sg8
I68
sba(iGraphStructs
Edge
p425
(dp426
g277
I47
sg279
F46.61544808322666
sg280
I26
sg282
F2.330772404161333
sg8
I69
sba(iGraphStructs
Edge
p427
(dp428
g277
I48
sg279
F25.495097567963924
sg280
I38
sg282
F1.2747548783981963
sg8
I70
sba(iGraphStructs
Edge
p429
(dp430
g277
I48
sg279
F58.52349955359813
sg280
I25
sg282
F2.9261749776799064
sg8
I71
sba(iGraphStructs
Edge
p431
(dp432
g277
I49
sg279
F21.095023109728988
sg280
I10
sg282
F1.0547511554864495
sg8
I72
sba(iGraphStructs
Edge
p433
(dp434
g277
I49
sg279
F21.213203435596427
sg280
I26
sg282
F1.0606601717798214
sg8
I73
sba(iGraphStructs
Edge
p435
(dp436
g277
I49
sg279
F33.24154027718932
sg280
g286
sg282
F1.6620770138594663
sg8
I74
sba(iGraphStructs
Edge
p437
(dp438
g277
I50
sg279
F25.96150997149434
sg280
I12
sg282
F1.2980754985747172
sg8
I75
sba(iGraphStructs
Edge
p439
(dp440
g277
I50
sg279
F36.87817782917155
sg280
I20
sg282
F1.8439088914585775
sg8
I76
sba(iGraphStructs
Edge
p441
(dp442
g277
I50
sg279
F43.104524124504614
sg280
I15
sg282
F2.155226206225231
sg8
I77
sba(iGraphStructs
Edge
p443
(dp444
g277
I50
sg279
F44.40720662234904
sg280
g278
sg282
F2.220360331117452
sg8
I78
sba(iGraphStructs
Edge
p445
(dp446
g277
I51
sg279
F26.248809496813376
sg280
I17
sg282
F1.3124404748406688
sg8
I79
sba(iGraphStructs
Edge
p447
(dp448
g277
I51
sg279
F43.104524124504614
sg280
I39
sg282
F2.155226206225231
sg8
I80
sba(iGraphStructs
Edge
p449
(dp450
g277
I51
sg279
F50.21951811795888
sg280
g292
sg282
F2.510975905897944
sg8
I81
sba(iGraphStructs
Edge
p451
(dp452
g277
I52
sg279
F24.351591323771842
sg280
I42
sg282
F1.2175795661885922
sg8
I82
sba(iGraphStructs
Edge
p453
(dp454
g277
I52
sg279
F29.410882339705484
sg280
I24
sg282
F1.4705441169852742
sg8
I83
sba(iGraphStructs
Edge
p455
(dp456
g277
I52
sg279
F35.22782990761707
sg280
I20
sg282
F1.7613914953808536
sg8
I84
sba(iGraphStructs
Edge
p457
(dp458
g277
I53
sg279
F24.186773244895647
sg280
g285
sg282
F1.2093386622447824
sg8
I85
sba(iGraphStructs
Edge
p459
(dp460
g277
I54
sg279
F25.317977802344327
sg280
I14
sg282
F1.2658988901172163
sg8
I86
sba(iGraphStructs
Edge
p461
(dp462
g277
I54
sg279
F27.586228448267445
sg280
I51
sg282
F1.3793114224133722
sg8
I87
sba(iGraphStructs
Edge
p463
(dp464
g277
I54
sg279
F28.0178514522438
sg280
I39
sg282
F1.4008925726121901
sg8
I88
sba(iGraphStructs
Edge
p465
(dp466
g277
I54
sg279
F50.11985634456667
sg280
I31
sg282
F2.505992817228334
sg8
I89
sba(iGraphStructs
Edge
p467
(dp468
g277
I55
sg279
F23.259406699226016
sg280
I25
sg282
F1.1629703349613008
sg8
I90
sba(iGraphStructs
Edge
p469
(dp470
g277
I55
sg279
F40.496913462633174
sg280
I9
sg282
F2.024845673131659
sg8
I91
sba(iGraphStructs
Edge
p471
(dp472
g277
I55
sg279
F41.773197148410844
sg280
I29
sg282
F2.0886598574205424
sg8
I92
sba(iGraphStructs
Edge
p473
(dp474
g277
I56
sg279
F28.653097563788805
sg280
I27
sg282
F1.4326548781894404
sg8
I93
sba(iGraphStructs
Edge
p475
(dp476
g277
I56
sg279
F30.0
sg280
I16
sg282
F1.5
sg8
I94
sba(iGraphStructs
Edge
p477
(dp478
g277
I56
sg279
F71.16881339463234
sg280
I47
sg282
F3.558440669731617
sg8
I95
sba(iGraphStructs
Edge
p479
(dp480
g277
I57
sg279
F28.42534080710379
sg280
g406
sg282
F1.4212670403551897
sg8
I96
sba(iGraphStructs
Edge
p481
(dp482
g277
I57
sg279
F36.235341863986875
sg280
I43
sg282
F1.811767093199344
sg8
I97
sba(iGraphStructs
Edge
p483
(dp484
g277
I58
sg279
F35.510561809129406
sg280
I40
sg282
F1.7755280904564703
sg8
I98
sba(iGraphStructs
Edge
p485
(dp486
g277
I58
sg279
F52.40229002629561
sg280
I35
sg282
F2.620114501314781
sg8
I99
sba(iGraphStructs
Edge
p487
(dp488
g277
I59
sg279
F30.675723300355934
sg280
I58
sg282
F1.5337861650177969
sg8
I100
sba(iGraphStructs
Edge
p489
(dp490
g277
I60
sg279
F26.1725046566048
sg280
g292
sg282
F1.3086252328302401
sg8
I101
sba(iGraphStructs
Edge
p491
(dp492
g277
I60
sg279
F34.0147027033899
sg280
I59
sg282
F1.700735135169495
sg8
I102
sba(iGraphStructs
Edge
p493
(dp494
g277
I61
sg279
F61.29437168288782
sg280
I44
sg282
F3.064718584144391
sg8
I103
sba(iGraphStructs
Edge
p495
(dp496
g277
I11
sg279
F40.52159917870962
sg280
I61
sg282
F2.026079958935481
sg8
I104
sba(iGraphStructs
Edge
p497
(dp498
g277
I62
sg279
F24.758836806279895
sg280
g286
sg282
F1.2379418403139948
sg8
I105
sba(iGraphStructs
Edge
p499
(dp500
g277
I62
sg279
F25.80697580112788
sg280
I49
sg282
F1.2903487900563941
sg8
I106
sba(iGraphStructs
Edge
p501
(dp502
g277
I62
sg279
F32.7566787083184
sg280
I38
sg282
F1.63783393541592
sg8
I107
sba(iGraphStructs
Edge
p503
(dp504
g277
I62
sg279
F43.266615305567875
sg280
I26
sg282
F2.1633307652783937
sg8
I108
sba(iGraphStructs
Edge
p505
(dp506
g277
I63
sg279
F22.561028345356956
sg280
g285
sg282
F1.1280514172678477
sg8
I109
sba(iGraphStructs
Edge
p507
(dp508
g277
I63
sg279
F29.966648127543394
sg280
g286
sg282
F1.4983324063771697
sg8
I110
sba(iGraphStructs
Edge
p509
(dp510
g277
I63
sg279
F32.57299494980466
sg280
I62
sg282
F1.628649747490233
sg8
I111
sba(iGraphStructs
Edge
p511
(dp512
g277
I63
sg279
F37.57658845611187
sg280
I53
sg282
F1.8788294228055937
sg8
I112
sba(iGraphStructs
Edge
p513
(dp514
g277
I38
sg279
F31.25699921617557
sg280
I26
sg282
F1.5628499608087785
sg8
I113
sba(iGraphStructs
Edge
p515
(dp516
g277
I64
sg279
F27.313000567495326
sg280
I12
sg282
F1.3656500283747663
sg8
I114
sba(iGraphStructs
Edge
p517
(dp518
g277
I65
sg279
F28.178005607210743
sg280
I43
sg282
F1.4089002803605373
sg8
I115
sba(iGraphStructs
Edge
p519
(dp520
g277
I65
sg279
F30.4138126514911
sg280
g406
sg282
F1.520690632574555
sg8
I116
sba(iGraphStructs
Edge
p521
(dp522
g277
I65
sg279
F31.76476034853718
sg280
I64
sg282
F1.588238017426859
sg8
I117
sba(iGraphStructs
Edge
p523
(dp524
g277
S'66'
p525
sg279
F35.35533905932738
sg280
S'33'
p526
sg282
F1.7677669529663689
sg8
I118
sba(iGraphStructs
Edge
p527
(dp528
g277
S'31'
p529
sg279
F47.12748667179272
sg280
S'36'
p530
sg282
F2.356374333589636
sg8
I119
sbaa(lp531
I4000
aF0.05
accopy_reg
_reconstructor
p532
(cgeometry_msgs.msg._Point
Point
p533
c__builtin__
object
p534
Ntp535
Rp536
(lp537
F-100.0
aF-100.0
aF0.0
abaa.