(lp0
(lp1
(iGraphStructs
Node
p2
(dp3
S'm_coords'
p4
(F39.2
F47.95
tp5
sS'graphic'
p6
I0
sS'coords'
p7
(lp8
I784
aI959
asS'id'
p9
I0
sS'prev_id'
p10
I-1
sba(iGraphStructs
Node
p11
(dp12
g4
(F55.6
F47.0
tp13
sg6
I1
sg7
(lp14
I1112
aI940
asg9
I1
sg10
I-1
sba(iGraphStructs
Node
p15
(dp16
g4
(F62.45
F50.2
tp17
sg6
I2
sg7
(lp18
I1249
aI1004
asg9
I2
sg10
I-1
sba(iGraphStructs
Node
p19
(dp20
g4
(F51.050000000000004
F51.900000000000006
tp21
sg6
I3
sg7
(lp22
I1021
aI1038
asg9
I3
sg10
I-1
sba(iGraphStructs
Node
p23
(dp24
g4
(F66.10000000000001
F44.7
tp25
sg6
I4
sg7
(lp26
I1322
aI894
asg9
I4
sg10
I-1
sba(iGraphStructs
Node
p27
(dp28
g4
(F41.25
F55.25
tp29
sg6
I5
sg7
(lp30
I825
aI1105
asg9
I5
sg10
I-1
sba(iGraphStructs
Node
p31
(dp32
g4
(F43.35
F55.400000000000006
tp33
sg6
I6
sg7
(lp34
I867
aI1108
asg9
I6
sg10
I-1
sba(iGraphStructs
Node
p35
(dp36
g4
(F57.1
F52.550000000000004
tp37
sg6
I7
sg7
(lp38
I1142
aI1051
asg9
I7
sg10
I-1
sba(iGraphStructs
Node
p39
(dp40
g4
(F38.050000000000004
F45.35
tp41
sg6
I8
sg7
(lp42
I761
aI907
asg9
I8
sg10
I-1
sba(iGraphStructs
Node
p43
(dp44
g4
(F43.0
F52.650000000000006
tp45
sg6
I9
sg7
(lp46
I860
aI1053
asg9
I9
sg10
I-1
sba(iGraphStructs
Node
p47
(dp48
g4
(F40.900000000000006
F50.050000000000004
tp49
sg6
I10
sg7
(lp50
I818
aI1001
asg9
I10
sg10
I-1
sba(iGraphStructs
Node
p51
(dp52
g4
(F35.4
F55.75
tp53
sg6
I11
sg7
(lp54
I708
aI1115
asg9
I11
sg10
I-1
sba(iGraphStructs
Node
p55
(dp56
g4
(F58.800000000000004
F44.400000000000006
tp57
sg6
I12
sg7
(lp58
I1176
aI888
asg9
I12
sg10
I-1
sba(iGraphStructs
Node
p59
(dp60
g4
(F46.300000000000004
F55.7
tp61
sg6
I13
sg7
(lp62
I926
aI1114
asg9
I13
sg10
I-1
sba(iGraphStructs
Node
p63
(dp64
g4
(F47.150000000000006
F47.900000000000006
tp65
sg6
I14
sg7
(lp66
I943
aI958
asg9
I14
sg10
I-1
sba(iGraphStructs
Node
p67
(dp68
g4
(F51.85
F47.2
tp69
sg6
I15
sg7
(lp70
I1037
aI944
asg9
I15
sg10
I-1
sba(iGraphStructs
Node
p71
(dp72
g4
(F36.35
F46.2
tp73
sg6
I16
sg7
(lp74
I727
aI924
asg9
I16
sg10
I-1
sba(iGraphStructs
Node
p75
(dp76
g4
(F31.85
F44.900000000000006
tp77
sg6
I17
sg7
(lp78
I637
aI898
asg9
I17
sg10
I-1
sba(iGraphStructs
Node
p79
(dp80
g4
(F56.650000000000006
F49.900000000000006
tp81
sg6
I18
sg7
(lp82
I1133
aI998
asg9
I18
sg10
I-1
sba(iGraphStructs
Node
p83
(dp84
g4
(F56.2
F44.300000000000004
tp85
sg6
I19
sg7
(lp86
I1124
aI886
asg9
I19
sg10
I-1
sba(iGraphStructs
Node
p87
(dp88
g4
(F40.7
F46.6
tp89
sg6
I20
sg7
(lp90
I814
aI932
asg9
I20
sg10
I-1
sba(iGraphStructs
Node
p91
(dp92
g4
(F64.35000000000001
F43.95
tp93
sg6
I21
sg7
(lp94
I1287
aI879
asg9
I21
sg10
I-1
sba(iGraphStructs
Node
p95
(dp96
g4
(F35.1
F47.1
tp97
sg6
I22
sg7
(lp98
I702
aI942
asg9
I22
sg10
I-1
sba(iGraphStructs
Node
p99
(dp100
g4
(F49.650000000000006
F46.2
tp101
sg6
I23
sg7
(lp102
I993
aI924
asg9
I23
sg10
I-1
sba(iGraphStructs
Node
p103
(dp104
g4
(F63.900000000000006
F51.45
tp105
sg6
I24
sg7
(lp106
I1278
aI1029
asg9
I24
sg10
I-1
sba(iGraphStructs
Node
p107
(dp108
g4
(F35.25
F45.1
tp109
sg6
I25
sg7
(lp110
I705
aI902
asg9
I25
sg10
I-1
sba(iGraphStructs
Node
p111
(dp112
g4
(F53.550000000000004
F52.5
tp113
sg6
I26
sg7
(lp114
I1071
aI1050
asg9
I26
sg10
I-1
sba(iGraphStructs
Node
p115
(dp116
g4
(F54.150000000000006
F47.7
tp117
sg6
I27
sg7
(lp118
I1083
aI954
asg9
I27
sg10
I-1
sba(iGraphStructs
Node
p119
(dp120
g4
(F62.75
F44.300000000000004
tp121
sg6
I28
sg7
(lp122
I1255
aI886
asg9
I28
sg10
I-1
sba(iGraphStructs
Node
p123
(dp124
g4
(F33.45
F45.0
tp125
sg6
I29
sg7
(lp126
I669
aI900
asg9
I29
sg10
I-1
sba(iGraphStructs
Node
p127
(dp128
g4
(F34.0
F50.400000000000006
tp129
sg6
I30
sg7
(lp130
I680
aI1008
asg9
I30
sg10
I-1
sba(iGraphStructs
Node
p131
(dp132
g4
(F68.10000000000001
F46.95
tp133
sg6
I31
sg7
(lp134
I1362
aI939
asg9
I31
sg10
I-1
sba(iGraphStructs
Node
p135
(dp136
g4
(F50.1
F54.550000000000004
tp137
sg6
I32
sg7
(lp138
I1002
aI1091
asg9
I32
sg10
I-1
sba(iGraphStructs
Node
p139
(dp140
g4
(F37.7
F51.900000000000006
tp141
sg6
I33
sg7
(lp142
I754
aI1038
asg9
I33
sg10
I-1
sba(iGraphStructs
Node
p143
(dp144
g4
(F47.35
F52.7
tp145
sg6
I34
sg7
(lp146
I947
aI1054
asg9
I34
sg10
I-1
sba(iGraphStructs
Node
p147
(dp148
g4
(F38.85
F54.400000000000006
tp149
sg6
I35
sg7
(lp150
I777
aI1088
asg9
I35
sg10
I-1
sba(iGraphStructs
Node
p151
(dp152
g4
(F51.95
F44.7
tp153
sg6
I36
sg7
(lp154
I1039
aI894
asg9
I36
sg10
I-1
sba(iGraphStructs
Node
p155
(dp156
g4
(F44.6
F45.95
tp157
sg6
I37
sg7
(lp158
I892
aI919
asg9
I37
sg10
I-1
sba(iGraphStructs
Node
p159
(dp160
g4
(F62.45
F47.400000000000006
tp161
sg6
I38
sg7
(lp162
I1249
aI948
asg9
I38
sg10
I-1
sba(iGraphStructs
Node
p163
(dp164
g4
(F65.2
F48.35
tp165
sg6
I39
sg7
(lp166
I1304
aI967
asg9
I39
sg10
I-1
sba(iGraphStructs
Node
p167
(dp168
g4
(F34.6
F52.1
tp169
sg6
I40
sg7
(lp170
I692
aI1042
asg9
I40
sg10
I-1
sba(iGraphStructs
Node
p171
(dp172
g4
(F59.400000000000006
F47.150000000000006
tp173
sg6
I41
sg7
(lp174
I1188
aI943
asg9
I41
sg10
I-1
sba(iGraphStructs
Node
p175
(dp176
g4
(F38.2
F55.85
tp177
sg6
I42
sg7
(lp178
I764
aI1117
asg9
I42
sg10
I-1
sba(iGraphStructs
Node
p179
(dp180
g4
(F35.65
F50.0
tp181
sg6
I43
sg7
(lp182
I713
aI1000
asg9
I43
sg10
I-1
sba(iGraphStructs
Node
p183
(dp184
g4
(F60.45
F50.2
tp185
sg6
I44
sg7
(lp186
I1209
aI1004
asg9
I44
sg10
I-1
sba(iGraphStructs
Node
p187
(dp188
g4
(F58.75
F49.7
tp189
sg6
I45
sg7
(lp190
I1175
aI994
asg9
I45
sg10
I-1
sba(iGraphStructs
Node
p191
(dp192
g4
(F48.1
F49.550000000000004
tp193
sg6
I46
sg7
(lp194
I962
aI991
asg9
I46
sg10
I-1
sba(iGraphStructs
Node
p195
(dp196
g4
(F33.800000000000004
F55.050000000000004
tp197
sg6
I47
sg7
(lp198
I676
aI1101
asg9
I47
sg10
I-1
sba(iGraphStructs
Node
p199
(dp200
g4
(F32.9
F46.75
tp201
sg6
I48
sg7
(lp202
I658
aI935
asg9
I48
sg10
I-1
sba(iGraphStructs
Node
p203
(dp204
g4
(F57.050000000000004
F54.900000000000006
tp205
sg6
I49
sg7
(lp206
I1141
aI1098
asg9
I49
sg10
I-1
sba(iGraphStructs
Node
p207
(dp208
g4
(F47.900000000000006
F45.1
tp209
sg6
I50
sg7
(lp210
I958
aI902
asg9
I50
sg10
I-1
sba(iGraphStructs
Node
p211
(dp212
g4
(F53.400000000000006
F54.050000000000004
tp213
sg6
I51
sg7
(lp214
I1068
aI1081
asg9
I51
sg10
I-1
sba(iGraphStructs
Node
p215
(dp216
g4
(F52.050000000000004
F50.550000000000004
tp217
sg6
I52
sg7
(lp218
I1041
aI1011
asg9
I52
sg10
I-1
sba(iGraphStructs
Node
p219
(dp220
g4
(F38.45
F50.0
tp221
sg6
I53
sg7
(lp222
I769
aI1000
asg9
I53
sg10
I-1
sba(iGraphStructs
Node
p223
(dp224
g4
(F55.550000000000004
F53.85
tp225
sg6
I54
sg7
(lp226
I1111
aI1077
asg9
I54
sg10
I-1
sba(iGraphStructs
Node
p227
(dp228
g4
(F48.95
F52.650000000000006
tp229
sg6
I55
sg7
(lp230
I979
aI1053
asg9
I55
sg10
I-1
sba(iGraphStructs
Node
p231
(dp232
g4
(F42.400000000000006
F50.6
tp233
sg6
I56
sg7
(lp234
I848
aI1012
asg9
I56
sg10
I-1
sba(iGraphStructs
Node
p235
(dp236
g4
(F44.85
F50.0
tp237
sg6
I57
sg7
(lp238
I897
aI1000
asg9
I57
sg10
I-1
sba(iGraphStructs
Node
p239
(dp240
g4
(F41.0
F48.300000000000004
tp241
sg6
I58
sg7
(lp242
I820
aI966
asg9
I58
sg10
I-1
sba(iGraphStructs
Node
p243
(dp244
g4
(F53.800000000000004
F46.050000000000004
tp245
sg6
I59
sg7
(lp246
I1076
aI921
asg9
I59
sg10
I-1
sba(iGraphStructs
Node
p247
(dp248
g4
(F45.300000000000004
F44.6
tp249
sg6
I60
sg7
(lp250
I906
aI892
asg9
I60
sg10
I-1
sba(iGraphStructs
Node
p251
(dp252
g4
(F42.900000000000006
F46.550000000000004
tp253
sg6
I61
sg7
(lp254
I858
aI931
asg9
I61
sg10
I-1
sba(iGraphStructs
Node
p255
(dp256
g4
(F50.400000000000006
F44.25
tp257
sg6
I62
sg7
(lp258
I1008
aI885
asg9
I62
sg10
I-1
sba(iGraphStructs
Node
p259
(dp260
g4
(F44.45
F53.95
tp261
sg6
I63
sg7
(lp262
I889
aI1079
asg9
I63
sg10
I-1
sba(iGraphStructs
Node
p263
(dp264
g4
(F51.75
F55.7
tp265
sg6
I64
sg7
(lp266
I1035
aI1114
asg9
I64
sg10
I-1
sba(iGraphStructs
Node
p267
(dp268
g4
(F40.35
F45.1
tp269
sg6
I65
sg7
(lp270
I807
aI902
asg9
I65
sg10
I-1
sba(iGraphStructs
Node
p271
(dp272
g4
(F54.2
F55.650000000000006
tp273
sg6
I66
sg7
(lp274
I1084
aI1113
asg9
I66
sg10
I-1
sba(iGraphStructs
Node
p275
(dp276
g4
(F60.85
F44.6
tp277
sg6
I67
sg7
(lp278
I1217
aI892
asg9
I67
sg10
I-1
sba(iGraphStructs
Node
p279
(dp280
g4
(F43.900000000000006
F48.1
tp281
sg6
I68
sg7
(lp282
I878
aI962
asg9
I68
sg10
I-1
sba(iGraphStructs
Node
p283
(dp284
g4
(F44.650000000000006
F52.35
tp285
sg6
I69
sg7
(lp286
I893
aI1047
asg9
I69
sg10
I-1
sba(iGraphStructs
Node
p287
(dp288
g4
(F54.300000000000004
F44.050000000000004
tp289
sg6
I70
sg7
(lp290
I1086
aI881
asg9
I70
sg10
I-1
sba(iGraphStructs
Node
p291
(dp292
g4
(F46.6
F46.150000000000006
tp293
sg6
I71
sg7
(lp294
I932
aI923
asg9
I71
sg10
I-1
sba(iGraphStructs
Node
p295
(dp296
g4
(F61.2
F46.550000000000004
tp297
sg6
I72
sg7
(lp298
I1224
aI931
asg9
I72
sg10
I-1
sba(iGraphStructs
Node
p299
(dp300
g4
(F68.05
F44.300000000000004
tp301
sg6
I73
sg7
(lp302
I1361
aI886
asg9
I73
sg10
I-1
sba(iGraphStructs
Node
p303
(dp304
g4
(F54.35
F50.45
tp305
sg6
I74
sg7
(lp306
I1087
aI1009
asg9
I74
sg10
I-1
sba(iGraphStructs
Node
p307
(dp308
g4
(F56.800000000000004
F47.900000000000006
tp309
sg6
I75
sg7
(lp310
I1136
aI958
asg9
I75
sg10
I-1
sba(iGraphStructs
Node
p311
(dp312
g4
(F65.60000000000001
F50.45
tp313
sg6
I76
sg7
(lp314
I1312
aI1009
asg9
I76
sg10
I-1
sba(iGraphStructs
Node
p315
(dp316
g4
(F37.85
F47.0
tp317
sg6
I77
sg7
(lp318
I757
aI940
asg9
I77
sg10
I-1
sba(iGraphStructs
Node
p319
(dp320
g4
(F63.95
F49.95
tp321
sg6
I78
sg7
(lp322
I1279
aI999
asg9
I78
sg10
I-1
sba(iGraphStructs
Node
p323
(dp324
g4
(F34.4
F53.650000000000006
tp325
sg6
I79
sg7
(lp326
I688
aI1073
asg9
I79
sg10
I-1
sba(iGraphStructs
Node
p327
(dp328
g4
(F50.0
F49.2
tp329
sg6
I80
sg7
(lp330
I1000
aI984
asg9
I80
sg10
I-1
sba(iGraphStructs
Node
p331
(dp332
g4
(F40.550000000000004
F53.300000000000004
tp333
sg6
I81
sg7
(lp334
I811
aI1066
asg9
I81
sg10
I-1
sba(iGraphStructs
Node
p335
(dp336
g4
(F43.400000000000006
F45.0
tp337
sg6
I82
sg7
(lp338
I868
aI900
asg9
I82
sg10
I-1
sba(iGraphStructs
Node
p339
(dp340
g4
(F64.60000000000001
F46.0
tp341
sg6
I83
sg7
(lp342
I1292
aI920
asg9
I83
sg10
I-1
sba(iGraphStructs
Node
p343
(dp344
g4
(F46.5
F49.550000000000004
tp345
sg6
I84
sg7
(lp346
I930
aI991
asg9
I84
sg10
I-1
sba(iGraphStructs
Node
p347
(dp348
g4
(F31.25
F46.75
tp349
sg6
I85
sg7
(lp350
I625
aI935
asg9
I85
sg10
I-1
sba(iGraphStructs
Node
p351
(dp352
g4
(F36.75
F54.150000000000006
tp353
sg6
I86
sg7
(lp354
I735
aI1083
asg9
I86
sg10
I-1
sba(iGraphStructs
Node
p355
(dp356
g4
(F53.0
F48.75
tp357
sg6
I87
sg7
(lp358
I1060
aI975
asg9
I87
sg10
I-1
sba(iGraphStructs
Node
p359
(dp360
g4
(F66.10000000000001
F46.5
tp361
sg6
I88
sg7
(lp362
I1322
aI930
asg9
I88
sg10
I-1
sba(iGraphStructs
Node
p363
(dp364
g4
(F62.1
F51.85
tp365
sg6
I89
sg7
(lp366
I1242
aI1037
asg9
I89
sg10
I-1
sba(iGraphStructs
Node
p367
(dp368
g4
(F62.6
F45.900000000000006
tp369
sg6
I90
sg7
(lp370
I1252
aI918
asg9
I90
sg10
I-1
sba(iGraphStructs
Node
p371
(dp372
g4
(F58.050000000000004
F45.95
tp373
sg6
I91
sg7
(lp374
I1161
aI919
asg9
I91
sg10
I-1
sba(iGraphStructs
Node
p375
(dp376
g4
(F49.2
F55.75
tp377
sg6
I92
sg7
(lp378
I984
aI1115
asg9
I92
sg10
I-1
sba(iGraphStructs
Node
p379
(dp380
g4
(F51.550000000000004
F53.400000000000006
tp381
sg6
I93
sg7
(lp382
I1031
aI1068
asg9
I93
sg10
I-1
sba(iGraphStructs
Node
p383
(dp384
g4
(F47.25
F54.25
tp385
sg6
I94
sg7
(lp386
I945
aI1085
asg9
I94
sg10
I-1
sba(iGraphStructs
Node
p387
(dp388
g4
(F49.85
F50.95
tp389
sg6
I95
sg7
(lp390
I997
aI1019
asg9
I95
sg10
I-1
sba(iGraphStructs
Node
p391
(dp392
g4
(F55.650000000000006
F51.95
tp393
sg6
I96
sg7
(lp394
I1113
aI1039
asg9
I96
sg10
I-1
sba(iGraphStructs
Node
p395
(dp396
g4
(F36.25
F48.2
tp397
sg6
I97
sg7
(lp398
I725
aI964
asg9
I97
sg10
I-1
sba(iGraphStructs
Node
p399
(dp400
g4
(F44.75
F55.95
tp401
sg6
I98
sg7
(lp402
I895
aI1119
asg9
I98
sg10
I-1
sba(iGraphStructs
Node
p403
(dp404
g4
(F46.800000000000004
F51.25
tp405
sg6
I99
sg7
(lp406
I936
aI1025
asg9
I99
sg10
I-1
sbaa(lp407
(iGraphStructs
Edge
p408
(dp409
g6
I0
sS'length'
p410
F56.859475903318
sS'm_length'
p411
F2.8429737951659
sS'node1'
p412
S'8'
p413
sS'node2'
p414
S'0'
p415
sg9
I0
sba(iGraphStructs
Edge
p416
(dp417
g6
I1
sg410
F55.44366510251645
sg411
F2.7721832551258228
sg412
S'9'
p418
sg414
S'6'
p419
sg9
I1
sba(iGraphStructs
Edge
p420
(dp421
g6
I2
sg410
F55.31726674375732
sg411
F2.7658633371878665
sg412
S'19'
p422
sg414
S'1'
p423
sg9
I2
sba(iGraphStructs
Edge
p424
(dp425
g6
I3
sg410
F38.07886552931954
sg411
F1.9039432764659772
sg412
S'21'
p426
sg414
S'4'
p427
sg9
I3
sba(iGraphStructs
Edge
p428
(dp429
g6
I4
sg410
F30.805843601498726
sg411
F1.5402921800749363
sg412
S'22'
p430
sg414
S'16'
p431
sg9
I4
sba(iGraphStructs
Edge
p432
(dp433
g6
I5
sg410
F78.49203781276162
sg411
F3.9246018906380815
sg412
g430
sg414
S'17'
p434
sg9
I5
sba(iGraphStructs
Edge
p435
(dp436
g6
I6
sg410
F38.28837943815329
sg411
F1.9144189719076647
sg412
S'24'
p437
sg414
S'2'
p438
sg9
I6
sba(iGraphStructs
Edge
p439
(dp440
g6
I7
sg410
F31.11269837220809
sg411
F1.5556349186104046
sg412
S'25'
p441
sg414
g431
sg9
I7
sba(iGraphStructs
Edge
p442
(dp443
g6
I8
sg410
F40.11234224026316
sg411
F2.0056171120131583
sg412
g441
sg414
g430
sg9
I8
sba(iGraphStructs
Edge
p444
(dp445
g6
I9
sg410
F68.11754546370561
sg411
F3.405877273185281
sg412
g441
sg414
g434
sg9
I9
sba(iGraphStructs
Edge
p446
(dp447
g6
I10
sg410
F51.419840528729765
sg411
F2.5709920264364885
sg412
S'26'
p448
sg414
S'3'
p449
sg9
I10
sba(iGraphStructs
Edge
p450
(dp451
g6
I11
sg410
F47.07440918375928
sg411
F2.353720459187964
sg412
S'27'
p452
sg414
S'15'
p453
sg9
I11
sba(iGraphStructs
Edge
p454
(dp455
g6
I12
sg410
F79.02531240052139
sg411
F3.9512656200260694
sg412
S'28'
p456
sg414
S'12'
p457
sg9
I12
sba(iGraphStructs
Edge
p458
(dp459
g6
I13
sg410
F32.0624390837628
sg411
F1.6031219541881399
sg412
S'29'
p460
sg414
g434
sg9
I13
sba(iGraphStructs
Edge
p461
(dp462
g6
I14
sg410
F36.05551275463989
sg411
F1.8027756377319948
sg412
g460
sg414
g441
sg9
I14
sba(iGraphStructs
Edge
p463
(dp464
g6
I15
sg410
F53.41348144429457
sg411
F2.6706740722147284
sg412
g460
sg414
g430
sg9
I15
sba(iGraphStructs
Edge
p465
(dp466
g6
I16
sg410
F62.76941930590086
sg411
F3.1384709652950433
sg412
g460
sg414
g431
sg9
I16
sba(iGraphStructs
Edge
p467
(dp468
g6
I17
sg410
F60.207972893961475
sg411
F3.010398644698074
sg412
S'31'
p469
sg414
g427
sg9
I17
sba(iGraphStructs
Edge
p470
(dp471
g6
I18
sg410
F56.302753041036986
sg411
F2.8151376520518494
sg412
S'32'
p472
sg414
g449
sg9
I18
sba(iGraphStructs
Edge
p473
(dp474
g6
I19
sg410
F63.56886030125127
sg411
F3.1784430150625638
sg412
S'34'
p475
sg414
S'13'
p476
sg9
I19
sba(iGraphStructs
Edge
p477
(dp478
g6
I20
sg410
F55.036351623268054
sg411
F2.7518175811634027
sg412
S'35'
p479
sg414
S'33'
p480
sg9
I20
sba(iGraphStructs
Edge
p481
(dp482
g6
I21
sg410
F50.039984012787215
sg411
F2.5019992006393608
sg412
S'36'
p483
sg414
g453
sg9
I21
sba(iGraphStructs
Edge
p484
(dp485
g6
I22
sg410
F74.4043009509531
sg411
F3.720215047547655
sg412
g483
sg414
g452
sg9
I22
sba(iGraphStructs
Edge
p486
(dp487
g6
I23
sg410
F62.289646009589745
sg411
F3.1144823004794873
sg412
S'38'
p488
sg414
g456
sg9
I23
sba(iGraphStructs
Edge
p489
(dp490
g6
I24
sg410
F75.18643494673756
sg411
F3.7593217473368785
sg412
S'39'
p491
sg414
g427
sg9
I24
sba(iGraphStructs
Edge
p492
(dp493
g6
I25
sg410
F74.73285756613352
sg411
F3.736642878306676
sg412
S'40'
p494
sg414
S'11'
p495
sg9
I25
sba(iGraphStructs
Edge
p496
(dp497
g6
I26
sg410
F56.293871780150276
sg411
F2.814693589007514
sg412
S'41'
p498
sg414
g457
sg9
I26
sba(iGraphStructs
Edge
p499
(dp500
g6
I27
sg410
F61.204574992397426
sg411
F3.0602287496198715
sg412
g498
sg414
g488
sg9
I27
sba(iGraphStructs
Edge
p501
(dp502
g6
I28
sg410
F31.78049716414141
sg411
F1.5890248582070705
sg412
S'42'
p503
sg414
g479
sg9
I28
sba(iGraphStructs
Edge
p504
(dp505
g6
I29
sg410
F79.63039620647382
sg411
F3.9815198103236913
sg412
g503
sg414
g480
sg9
I29
sba(iGraphStructs
Edge
p506
(dp507
g6
I30
sg410
F33.95585369269929
sg411
F1.6977926846349647
sg412
S'43'
p508
sg414
S'30'
p509
sg9
I30
sba(iGraphStructs
Edge
p510
(dp511
g6
I31
sg410
F40.0
sg411
F2.0
sg412
S'44'
p512
sg414
g438
sg9
I31
sba(iGraphStructs
Edge
p513
(dp514
g6
I32
sg410
F76.23647421018367
sg411
F3.811823710509184
sg412
g512
sg414
S'18'
p515
sg9
I32
sba(iGraphStructs
Edge
p516
(dp517
g6
I33
sg410
F35.4400902933387
sg411
F1.772004514666935
sg412
S'45'
p518
sg414
g512
sg9
I33
sba(iGraphStructs
Edge
p519
(dp520
g6
I34
sg410
F42.190046219457976
sg411
F2.109502310972899
sg412
g518
sg414
g515
sg9
I34
sba(iGraphStructs
Edge
p521
(dp522
g6
I35
sg410
F74.67261881037788
sg411
F3.7336309405188945
sg412
g518
sg414
g438
sg9
I35
sba(iGraphStructs
Edge
p523
(dp524
g6
I36
sg410
F34.92849839314596
sg411
F1.746424919657298
sg412
S'47'
p525
sg414
g495
sg9
I36
sba(iGraphStructs
Edge
p526
(dp527
g6
I37
sg410
F61.1310068623117
sg411
F3.0565503431155854
sg412
g525
sg414
g494
sg9
I37
sba(iGraphStructs
Edge
p528
(dp529
g6
I38
sg410
F36.68787265568828
sg411
F1.8343936327844141
sg412
S'48'
p530
sg414
g460
sg9
I38
sba(iGraphStructs
Edge
p531
(dp532
g6
I39
sg410
F42.5440947723653
sg411
F2.127204738618265
sg412
g530
sg414
g434
sg9
I39
sba(iGraphStructs
Edge
p533
(dp534
g6
I40
sg410
F44.553338819890925
sg411
F2.2276669409945464
sg412
g530
sg414
g430
sg9
I40
sba(iGraphStructs
Edge
p535
(dp536
g6
I41
sg410
F57.42821606144492
sg411
F2.871410803072246
sg412
g530
sg414
g441
sg9
I41
sba(iGraphStructs
Edge
p537
(dp538
g6
I42
sg410
F69.87131027825369
sg411
F3.4935655139126847
sg412
g530
sg414
g431
sg9
I42
sba(iGraphStructs
Edge
p539
(dp540
g6
I43
sg410
F47.01063709417264
sg411
F2.350531854708632
sg412
S'49'
p541
sg414
S'7'
p542
sg9
I43
sba(iGraphStructs
Edge
p543
(dp544
g6
I44
sg410
F57.97413216254298
sg411
F2.8987066081271493
sg412
S'50'
p545
sg414
S'14'
p546
sg9
I44
sba(iGraphStructs
Edge
p547
(dp548
g6
I45
sg410
F31.144823004794873
sg411
F1.5572411502397436
sg412
S'51'
p549
sg414
g448
sg9
I45
sba(iGraphStructs
Edge
p550
(dp551
g6
I46
sg410
F63.702433234531945
sg411
F3.1851216617265976
sg412
g549
sg414
g449
sg9
I46
sba(iGraphStructs
Edge
p552
(dp553
g6
I47
sg410
F66.75327707311455
sg411
F3.3376638536557275
sg412
g549
sg414
g472
sg9
I47
sba(iGraphStructs
Edge
p554
(dp555
g6
I48
sg410
F49.01020301937138
sg411
F2.450510150968569
sg412
S'53'
p556
sg414
S'10'
p557
sg9
I48
sba(iGraphStructs
Edge
p558
(dp559
g6
I49
sg410
F56.0
sg411
F2.8000000000000003
sg412
g556
sg414
g508
sg9
I49
sba(iGraphStructs
Edge
p560
(dp561
g6
I50
sg410
F36.61966684720111
sg411
F1.8309833423600557
sg412
S'54'
p562
sg414
g541
sg9
I50
sba(iGraphStructs
Edge
p563
(dp564
g6
I51
sg410
F40.45985664828782
sg411
F2.022992832414391
sg412
g562
sg414
g542
sg9
I51
sba(iGraphStructs
Edge
p565
(dp566
g6
I52
sg410
F44.41846462902562
sg411
F2.2209232314512812
sg412
S'55'
p567
sg414
g472
sg9
I52
sba(iGraphStructs
Edge
p568
(dp569
g6
I53
sg410
F44.598206241955516
sg411
F2.229910312097776
sg412
g567
sg414
g449
sg9
I53
sba(iGraphStructs
Edge
p570
(dp571
g6
I54
sg410
F31.953090617340916
sg411
F1.5976545308670458
sg412
S'56'
p572
sg414
g557
sg9
I54
sba(iGraphStructs
Edge
p573
(dp574
g6
I55
sg410
F79.90619500389191
sg411
F3.9953097501945956
sg412
g572
sg414
g556
sg9
I55
sba(iGraphStructs
Edge
p575
(dp576
g6
I56
sg410
F50.44799302251776
sg411
F2.522399651125888
sg412
S'57'
p577
sg414
g572
sg9
I56
sba(iGraphStructs
Edge
p578
(dp579
g6
I57
sg410
F65.62011886609167
sg411
F3.2810059433045837
sg412
g577
sg414
S'46'
p580
sg9
I57
sba(iGraphStructs
Edge
p581
(dp582
g6
I58
sg410
F79.00632886041473
sg411
F3.9503164430207365
sg412
g577
sg414
g557
sg9
I58
sba(iGraphStructs
Edge
p583
(dp584
g6
I59
sg410
F34.52535300326414
sg411
F1.7262676501632068
sg412
S'58'
p585
sg414
S'20'
p586
sg9
I59
sba(iGraphStructs
Edge
p587
(dp588
g6
I60
sg410
F35.05709628591621
sg411
F1.7528548142958105
sg412
g585
sg414
g557
sg9
I60
sba(iGraphStructs
Edge
p589
(dp590
g6
I61
sg410
F33.734255586866
sg411
F1.6867127793433
sg412
S'59'
p591
sg414
g452
sg9
I61
sba(iGraphStructs
Edge
p592
(dp593
g6
I62
sg410
F45.27692569068709
sg411
F2.2638462845343543
sg412
g591
sg414
g453
sg9
I62
sba(iGraphStructs
Edge
p594
(dp595
g6
I63
sg410
F45.803929962395145
sg411
F2.2901964981197573
sg412
g591
sg414
g483
sg9
I63
sba(iGraphStructs
Edge
p596
(dp597
g6
I64
sg410
F30.4138126514911
sg411
F1.520690632574555
sg412
S'60'
p598
sg414
S'37'
p599
sg9
I64
sba(iGraphStructs
Edge
p600
(dp601
g6
I65
sg410
F36.05551275463989
sg411
F1.8027756377319948
sg412
S'61'
p602
sg414
g599
sg9
I65
sba(iGraphStructs
Edge
p603
(dp604
g6
I66
sg410
F61.84658438426491
sg411
F3.0923292192132457
sg412
g602
sg414
g598
sg9
I66
sba(iGraphStructs
Edge
p605
(dp606
g6
I67
sg410
F41.78516483155236
sg411
F2.089258241577618
sg412
S'62'
p607
sg414
S'23'
p608
sg9
I67
sba(iGraphStructs
Edge
p609
(dp610
g6
I68
sg410
F36.40054944640259
sg411
F1.8200274723201297
sg412
S'63'
p611
sg414
g419
sg9
I68
sba(iGraphStructs
Edge
p612
(dp613
g6
I69
sg410
F38.948684188300895
sg411
F1.9474342094150447
sg412
g611
sg414
g418
sg9
I69
sba(iGraphStructs
Edge
p614
(dp615
g6
I70
sg410
F40.22437072223753
sg411
F2.0112185361118766
sg412
S'64'
p616
sg414
g472
sg9
I70
sba(iGraphStructs
Edge
p617
(dp618
g6
I71
sg410
F46.66904755831214
sg411
F2.333452377915607
sg412
g616
sg414
g549
sg9
I71
sba(iGraphStructs
Edge
p619
(dp620
g6
I72
sg410
F73.43023900274328
sg411
F3.6715119501371642
sg412
g616
sg414
g448
sg9
I72
sba(iGraphStructs
Edge
p621
(dp622
g6
I73
sg410
F77.27871634544663
sg411
F3.8639358172723313
sg412
g616
sg414
g449
sg9
I73
sba(iGraphStructs
Edge
p623
(dp624
g6
I74
sg410
F30.805843601498726
sg411
F1.5402921800749363
sg412
S'65'
p625
sg414
g586
sg9
I74
sba(iGraphStructs
Edge
p626
(dp627
g6
I75
sg410
F65.30696746902278
sg411
F3.2653483734511393
sg412
g625
sg414
g585
sg9
I75
sba(iGraphStructs
Edge
p628
(dp629
g6
I76
sg410
F35.77708763999664
sg411
F1.788854381999832
sg412
S'66'
p630
sg414
g549
sg9
I76
sba(iGraphStructs
Edge
p631
(dp632
g6
I77
sg410
F49.01020301937138
sg411
F2.450510150968569
sg412
g630
sg414
g616
sg9
I77
sba(iGraphStructs
Edge
p633
(dp634
g6
I78
sg410
F64.32728814430156
sg411
F3.216364407215078
sg412
g630
sg414
g448
sg9
I78
sba(iGraphStructs
Edge
p635
(dp636
g6
I79
sg410
F38.47076812334269
sg411
F1.9235384061671343
sg412
S'67'
p637
sg414
g456
sg9
I79
sba(iGraphStructs
Edge
p638
(dp639
g6
I80
sg410
F41.19465984809196
sg411
F2.059732992404598
sg412
g637
sg414
g457
sg9
I80
sba(iGraphStructs
Edge
p640
(dp641
g6
I81
sg410
F58.66856057549052
sg411
F2.933428028774526
sg412
g637
sg414
g498
sg9
I81
sba(iGraphStructs
Edge
p642
(dp643
g6
I82
sg410
F64.4980619863884
sg411
F3.2249030993194197
sg412
g637
sg414
g488
sg9
I82
sba(iGraphStructs
Edge
p644
(dp645
g6
I83
sg410
F36.89173349139343
sg411
F1.8445866745696717
sg412
S'68'
p646
sg414
g602
sg9
I83
sba(iGraphStructs
Edge
p647
(dp648
g6
I84
sg410
F45.221676218380054
sg411
F2.261083810919003
sg412
g646
sg414
g599
sg9
I84
sba(iGraphStructs
Edge
p649
(dp650
g6
I85
sg410
F32.2490309931942
sg411
F1.6124515496597098
sg412
S'69'
p651
sg414
g611
sg9
I85
sba(iGraphStructs
Edge
p652
(dp653
g6
I86
sg410
F33.54101966249684
sg411
F1.6770509831248424
sg412
g651
sg414
g418
sg9
I86
sba(iGraphStructs
Edge
p654
(dp655
g6
I87
sg410
F66.30987860040162
sg411
F3.315493930020081
sg412
g651
sg414
g419
sg9
I87
sba(iGraphStructs
Edge
p656
(dp657
g6
I88
sg410
F41.23105625617661
sg411
F2.0615528128088303
sg412
S'70'
p658
sg414
g591
sg9
I88
sba(iGraphStructs
Edge
p659
(dp660
g6
I89
sg410
F48.76474136094644
sg411
F2.438237068047322
sg412
g658
sg414
g483
sg9
I89
sba(iGraphStructs
Edge
p661
(dp662
g6
I90
sg410
F73.06161783043132
sg411
F3.653080891521566
sg412
g658
sg414
g452
sg9
I90
sba(iGraphStructs
Edge
p663
(dp664
g6
I91
sg410
F33.421549934136806
sg411
F1.6710774967068405
sg412
S'71'
p665
sg414
g545
sg9
I91
sba(iGraphStructs
Edge
p666
(dp667
g6
I92
sg410
F36.68787265568828
sg411
F1.8343936327844141
sg412
g665
sg414
g546
sg9
I92
sba(iGraphStructs
Edge
p668
(dp669
g6
I93
sg410
F30.23243291566195
sg411
F1.5116216457830975
sg412
S'72'
p670
sg414
g488
sg9
I93
sba(iGraphStructs
Edge
p671
(dp672
g6
I94
sg410
F37.94733192202055
sg411
F1.8973665961010278
sg412
g670
sg414
g498
sg9
I94
sba(iGraphStructs
Edge
p673
(dp674
g6
I95
sg410
F39.6232255123179
sg411
F1.9811612756158952
sg412
g670
sg414
g637
sg9
I95
sba(iGraphStructs
Edge
p675
(dp676
g6
I96
sg410
F54.644304369257
sg411
F2.73221521846285
sg412
g670
sg414
g456
sg9
I96
sba(iGraphStructs
Edge
p677
(dp678
g6
I97
sg410
F64.4437739428721
sg411
F3.222188697143605
sg412
g670
sg414
g457
sg9
I97
sba(iGraphStructs
Edge
p679
(dp680
g6
I98
sg410
F39.81205847478876
sg411
F1.9906029237394383
sg412
S'73'
p681
sg414
g427
sg9
I98
sba(iGraphStructs
Edge
p682
(dp683
g6
I99
sg410
F53.009433122794285
sg411
F2.6504716561397146
sg412
g681
sg414
g469
sg9
I99
sba(iGraphStructs
Edge
p684
(dp685
g6
I100
sg410
F74.33034373659252
sg411
F3.7165171868296265
sg412
g681
sg414
g426
sg9
I100
sba(iGraphStructs
Edge
p686
(dp687
g6
I101
sg410
F46.04345773288535
sg411
F2.3021728866442674
sg412
S'74'
p688
sg414
S'52'
p689
sg9
I101
sba(iGraphStructs
Edge
p690
(dp691
g6
I102
sg410
F47.29693436154187
sg411
F2.364846718077094
sg412
g688
sg414
g515
sg9
I102
sba(iGraphStructs
Edge
p692
(dp693
g6
I103
sg410
F30.0
sg411
F1.5
sg412
S'75'
p694
sg414
g423
sg9
I103
sba(iGraphStructs
Edge
p695
(dp696
g6
I104
sg410
F39.44616584663204
sg411
F1.9723082923316022
sg412
S'76'
p697
sg414
g437
sg9
I104
sba(iGraphStructs
Edge
p698
(dp699
g6
I105
sg410
F42.7551166528639
sg411
F2.137755832643195
sg412
g697
sg414
g491
sg9
I105
sba(iGraphStructs
Edge
p700
(dp701
g6
I106
sg410
F63.198101237299845
sg411
F3.1599050618649924
sg412
g697
sg414
g438
sg9
I106
sba(iGraphStructs
Edge
p702
(dp703
g6
I107
sg410
F33.015148038438355
sg411
F1.6507574019219178
sg412
S'77'
p704
sg414
g415
sg9
I107
sba(iGraphStructs
Edge
p705
(dp706
g6
I108
sg410
F33.24154027718932
sg411
F1.6620770138594663
sg412
g704
sg414
g413
sg9
I108
sba(iGraphStructs
Edge
p707
(dp708
g6
I109
sg410
F30.01666203960727
sg411
F1.5008331019803636
sg412
S'78'
p709
sg414
g437
sg9
I109
sba(iGraphStructs
Edge
p710
(dp711
g6
I110
sg410
F30.4138126514911
sg411
F1.520690632574555
sg412
g709
sg414
g438
sg9
I110
sba(iGraphStructs
Edge
p712
(dp713
g6
I111
sg410
F34.48187929913333
sg411
F1.7240939649566667
sg412
g709
sg414
g697
sg9
I111
sba(iGraphStructs
Edge
p714
(dp715
g6
I112
sg410
F70.178344238091
sg411
F3.50891721190455
sg412
g709
sg414
g512
sg9
I112
sba(iGraphStructs
Edge
p716
(dp717
g6
I113
sg410
F30.463092423455635
sg411
F1.5231546211727818
sg412
S'79'
p718
sg414
g525
sg9
I113
sba(iGraphStructs
Edge
p719
(dp720
g6
I114
sg410
F31.25699921617557
sg411
F1.5628499608087785
sg412
g718
sg414
g494
sg9
I114
sba(iGraphStructs
Edge
p721
(dp722
g6
I115
sg410
F46.51881339845203
sg411
F2.3259406699226015
sg412
g718
sg414
g495
sg9
I115
sba(iGraphStructs
Edge
p723
(dp724
g6
I116
sg410
F49.09175083453431
sg411
F2.4545875417267156
sg412
S'80'
p725
sg414
g689
sg9
I116
sba(iGraphStructs
Edge
p726
(dp727
g6
I117
sg410
F60.40695324215582
sg411
F3.0203476621077914
sg412
g725
sg414
g608
sg9
I117
sba(iGraphStructs
Edge
p728
(dp729
g6
I118
sg410
F41.43669871020132
sg411
F2.0718349355100663
sg412
S'81'
p730
sg414
S'5'
p731
sg9
I118
sba(iGraphStructs
Edge
p732
(dp733
g6
I119
sg410
F65.37583651472461
sg411
F3.2687918257362307
sg412
g730
sg414
g557
sg9
I119
sba(iGraphStructs
Edge
p734
(dp735
g6
I120
sg410
F30.610455730027933
sg411
F1.5305227865013968
sg412
S'82'
p736
sg414
g599
sg9
I120
sba(iGraphStructs
Edge
p737
(dp738
g6
I121
sg410
F32.57299494980466
sg411
F1.628649747490233
sg412
g736
sg414
g602
sg9
I121
sba(iGraphStructs
Edge
p739
(dp740
g6
I122
sg410
F38.8329756778952
sg411
F1.94164878389476
sg412
g736
sg414
g598
sg9
I122
sba(iGraphStructs
Edge
p741
(dp742
g6
I123
sg410
F62.80127387243033
sg411
F3.1400636936215167
sg412
g736
sg414
g646
sg9
I123
sba(iGraphStructs
Edge
p743
(dp744
g6
I124
sg410
F39.698866482558415
sg411
F1.9849433241279208
sg412
S'83'
p745
sg414
g427
sg9
I124
sba(iGraphStructs
Edge
p746
(dp747
g6
I125
sg410
F41.30375285612676
sg411
F2.0651876428063383
sg412
g745
sg414
g426
sg9
I125
sba(iGraphStructs
Edge
p748
(dp749
g6
I126
sg410
F48.507731342539614
sg411
F2.425386567126981
sg412
g745
sg414
g491
sg9
I126
sba(iGraphStructs
Edge
p750
(dp751
g6
I127
sg410
F32.0
sg411
F1.6
sg412
S'84'
p752
sg414
g580
sg9
I127
sba(iGraphStructs
Edge
p753
(dp754
g6
I128
sg410
F34.20526275297414
sg411
F1.7102631376487072
sg412
g752
sg414
g577
sg9
I128
sba(iGraphStructs
Edge
p755
(dp756
g6
I129
sg410
F33.0
sg411
F1.6500000000000001
sg412
S'85'
p757
sg414
g530
sg9
I129
sba(iGraphStructs
Edge
p758
(dp759
g6
I130
sg410
F38.897300677553446
sg411
F1.9448650338776723
sg412
g757
sg414
g434
sg9
I130
sba(iGraphStructs
Edge
p760
(dp761
g6
I131
sg410
F56.22277118748239
sg411
F2.8111385593741196
sg412
g757
sg414
g460
sg9
I131
sba(iGraphStructs
Edge
p762
(dp763
g6
I132
sg410
F42.2965719651132
sg411
F2.1148285982556603
sg412
S'86'
p764
sg414
g479
sg9
I132
sba(iGraphStructs
Edge
p765
(dp766
g6
I133
sg410
F44.68780594300866
sg411
F2.234390297150433
sg412
g764
sg414
g503
sg9
I133
sba(iGraphStructs
Edge
p767
(dp768
g6
I134
sg410
F48.84669896727925
sg411
F2.4423349483639627
sg412
g764
sg414
g480
sg9
I134
sba(iGraphStructs
Edge
p769
(dp770
g6
I135
sg410
F56.32051136131489
sg411
F2.816025568065745
sg412
S'87'
p771
sg414
g591
sg9
I135
sba(iGraphStructs
Edge
p772
(dp773
g6
I136
sg410
F31.622776601683793
sg411
F1.5811388300841898
sg412
S'88'
p774
sg414
g745
sg9
I136
sba(iGraphStructs
Edge
p775
(dp776
g6
I137
sg410
F36.0
sg411
F1.8
sg412
g774
sg414
g427
sg9
I137
sba(iGraphStructs
Edge
p777
(dp778
g6
I138
sg410
F41.0
sg411
F2.0500000000000003
sg412
g774
sg414
g469
sg9
I138
sba(iGraphStructs
Edge
p779
(dp780
g6
I139
sg410
F41.14608122288197
sg411
F2.0573040611440985
sg412
g774
sg414
g491
sg9
I139
sba(iGraphStructs
Edge
p781
(dp782
g6
I140
sg410
F58.7962583843564
sg411
F2.93981291921782
sg412
g774
sg414
g681
sg9
I140
sba(iGraphStructs
Edge
p783
(dp784
g6
I141
sg410
F61.85466837676846
sg411
F3.092733418838423
sg412
g774
sg414
g426
sg9
I141
sba(iGraphStructs
Edge
p785
(dp786
g6
I142
sg410
F33.734255586866
sg411
F1.6867127793433
sg412
S'89'
p787
sg414
g438
sg9
I142
sba(iGraphStructs
Edge
p788
(dp789
g6
I143
sg410
F36.87817782917155
sg411
F1.8439088914585775
sg412
g787
sg414
g437
sg9
I143
sba(iGraphStructs
Edge
p790
(dp791
g6
I144
sg410
F53.03772242470448
sg411
F2.651886121235224
sg412
g787
sg414
g709
sg9
I144
sba(iGraphStructs
Edge
p792
(dp793
g6
I145
sg410
F75.39230729988306
sg411
F3.769615364994153
sg412
g787
sg414
g697
sg9
I145
sba(iGraphStructs
Edge
p794
(dp795
g6
I146
sg410
F30.14962686336267
sg411
F1.5074813431681335
sg412
S'90'
p796
sg414
g488
sg9
I146
sba(iGraphStructs
Edge
p797
(dp798
g6
I147
sg410
F30.870698080866262
sg411
F1.5435349040433133
sg412
g796
sg414
g670
sg9
I147
sba(iGraphStructs
Edge
p799
(dp800
g6
I148
sg410
F32.14031735997639
sg411
F1.6070158679988198
sg412
g796
sg414
g456
sg9
I148
sba(iGraphStructs
Edge
p801
(dp802
g6
I149
sg410
F43.60045871318328
sg411
F2.180022935659164
sg412
g796
sg414
g637
sg9
I149
sba(iGraphStructs
Edge
p803
(dp804
g6
I150
sg410
F34.438350715445125
sg411
F1.7219175357722563
sg412
S'91'
p805
sg414
g457
sg9
I150
sba(iGraphStructs
Edge
p806
(dp807
g6
I151
sg410
F36.124783736376884
sg411
F1.8062391868188443
sg412
g805
sg414
g498
sg9
I151
sba(iGraphStructs
Edge
p808
(dp809
g6
I152
sg410
F62.16912416947821
sg411
F3.1084562084739105
sg412
g805
sg414
g637
sg9
I152
sba(iGraphStructs
Edge
p810
(dp811
g6
I153
sg410
F30.0
sg411
F1.5
sg412
S'92'
p812
sg414
g472
sg9
I153
sba(iGraphStructs
Edge
p813
(dp814
g6
I154
sg410
F51.0098029794274
sg411
F2.5504901489713703
sg412
g812
sg414
g616
sg9
I154
sba(iGraphStructs
Edge
p815
(dp816
g6
I155
sg410
F62.20128616033595
sg411
F3.1100643080167973
sg412
g812
sg414
g567
sg9
I155
sba(iGraphStructs
Edge
p817
(dp818
g6
I156
sg410
F31.622776601683793
sg411
F1.5811388300841898
sg412
S'93'
p819
sg414
g449
sg9
I156
sba(iGraphStructs
Edge
p820
(dp821
g6
I157
sg410
F37.013511046643494
sg411
F1.8506755523321747
sg412
g819
sg414
g472
sg9
I157
sba(iGraphStructs
Edge
p822
(dp823
g6
I158
sg410
F39.21734310225516
sg411
F1.9608671551127579
sg412
g819
sg414
g549
sg9
I158
sba(iGraphStructs
Edge
p824
(dp825
g6
I159
sg410
F43.86342439892262
sg411
F2.193171219946131
sg412
g819
sg414
g448
sg9
I159
sba(iGraphStructs
Edge
p826
(dp827
g6
I160
sg410
F46.17358552246078
sg411
F2.3086792761230392
sg412
g819
sg414
g616
sg9
I160
sba(iGraphStructs
Edge
p828
(dp829
g6
I161
sg410
F54.120236510939236
sg411
F2.706011825546962
sg412
g819
sg414
g567
sg9
I161
sba(iGraphStructs
Edge
p830
(dp831
g6
I162
sg410
F31.064449134018133
sg411
F1.5532224567009068
sg412
S'94'
p832
sg414
g475
sg9
I162
sba(iGraphStructs
Edge
p833
(dp834
g6
I163
sg410
F34.66987164671943
sg411
F1.7334935823359716
sg412
g832
sg414
g476
sg9
I163
sba(iGraphStructs
Edge
p835
(dp836
g6
I164
sg410
F35.12833614050059
sg411
F1.7564168070250297
sg412
S'95'
p837
sg414
g725
sg9
I164
sba(iGraphStructs
Edge
p838
(dp839
g6
I165
sg410
F44.82186966202994
sg411
F2.2410934831014973
sg412
g837
sg414
g580
sg9
I165
sba(iGraphStructs
Edge
p840
(dp841
g6
I166
sg410
F31.38470965295043
sg411
F1.5692354826475217
sg412
S'96'
p842
sg414
g542
sg9
I166
sba(iGraphStructs
Edge
p843
(dp844
g6
I167
sg410
F38.05259518088089
sg411
F1.9026297590440446
sg412
g842
sg414
g562
sg9
I167
sba(iGraphStructs
Edge
p845
(dp846
g6
I168
sg410
F31.827660925679098
sg411
F1.5913830462839549
sg412
S'97'
p847
sg414
g430
sg9
I168
sba(iGraphStructs
Edge
p848
(dp849
g6
I169
sg410
F40.049968789001575
sg411
F2.0024984394500787
sg412
g847
sg414
g431
sg9
I169
sba(iGraphStructs
Edge
p850
(dp851
g6
I170
sg410
F30.083217912982647
sg411
F1.5041608956491324
sg412
S'98'
p852
sg414
g419
sg9
I170
sba(iGraphStructs
Edge
p853
(dp854
g6
I171
sg410
F40.44749683231337
sg411
F2.0223748416156684
sg412
g852
sg414
g611
sg9
I171
sba(iGraphStructs
Edge
p855
(dp856
g6
I172
sg410
F72.02777242147643
sg411
F3.6013886210738217
sg412
g852
sg414
g651
sg9
I172
sba(iGraphStructs
Edge
p857
(dp858
g6
I173
sg410
F31.016124838541646
sg411
F1.5508062419270825
sg412
S'99'
p859
sg414
g475
sg9
I173
sba(iGraphStructs
Edge
p860
(dp861
g6
I174
sg410
F34.52535300326414
sg411
F1.7262676501632068
sg412
g859
sg414
g752
sg9
I174
sbaa(lp862
I1984
aF0.05
accopy_reg
_reconstructor
p863
(cgeometry_msgs.msg._Point
Point
p864
c__builtin__
object
p865
Ntp866
Rp867
(lp868
F0.0
aF0.0
aF0.0
abaa.