(lp0
(inode
Node
p1
(dp2
S'coords'
p3
(lp4
I1890
aI-1894
asS'id'
p5
I0
sba(inode
Node
p6
(dp7
g3
(lp8
I1933
aI-1898
asg5
I1
sba(inode
Node
p9
(dp10
g3
(lp11
I2003
aI-1900
asg5
I2
sba(inode
Node
p12
(dp13
g3
(lp14
I2041
aI-1902
asg5
I3
sba(inode
Node
p15
(dp16
g3
(lp17
I2044
aI-1944
asg5
I4
sba(inode
Node
p18
(dp19
g3
(lp20
I2045
aI-1974
asg5
I5
sba(inode
Node
p21
(dp22
g3
(lp23
I2020
aI-1945
asg5
I6
sba(inode
Node
p24
(dp25
g3
(lp26
I2023
aI-1980
asg5
I7
sba.